target datalayout = "e-m:e-p270:32:32-p271:32:32-p272:64:64-i64:64-i128:128-f80:128-n8:16:32:64-S128"
target triple = "x86_64-pc-linux-gnu"

%struct.curltime = type { i64, i32 }
%struct.Curl_llist_node = type { ptr, ptr, ptr, ptr }
%struct.easy_pollset = type { [5 x i32], i32, [5 x i8] }
%struct.ssl_primary_config = type { ptr, ptr, ptr, ptr, ptr, ptr, ptr, ptr, ptr, ptr, ptr, ptr, i8, i32, i8, i8 }
%struct.dynbuf = type { ptr, i64, i64, i64 }
%struct.Curl_llist = type { ptr, ptr, ptr, i64 }
%struct.ip_quadruple = type { [46 x i8], [46 x i8], i32, i32 }
%struct.connectdata = type { %struct.Curl_llist_node, ptr, ptr, i64, ptr, i64, ptr, ptr, %struct.hostname, ptr, ptr, %struct.hostname, %struct.proxy_info, %struct.proxy_info, %struct.ip_quadruple, %struct.ip_quadruple, ptr, ptr, ptr, ptr, ptr, %struct.curltime, %struct.curltime, %struct.curltime, [2 x i32], [2 x ptr], [2 x ptr], [2 x ptr], %struct.anon, %struct.easy_pollset, %struct.ssl_primary_config, %struct.ssl_primary_config, %struct.ConnectBits, ptr, ptr, %struct.curltime, i32, i32, %struct.Curl_llist, i32, i32, %struct.ntlmdata, %struct.ntlmdata, %union.anon.1, ptr, i16, i32, i32, i32, i32, i16, i16, i8, i8, i8, i8, i8, i8, i8 }
%struct.hostname = type { ptr, ptr, ptr, ptr }
%struct.proxy_info = type { %struct.hostname, i32, i8, ptr, ptr }
%struct.anon = type { [2 x %struct.curltime], i32 }
%struct.ConnectBits = type { i64 }
%struct.ntlmdata = type { i32, [8 x i8], i32, ptr }
%union.anon.1 = type { %struct.ftp_conn }
%struct.ftp_conn = type { %struct.pingpong, ptr, ptr, ptr, ptr, ptr, ptr, ptr, i8, i64, ptr, i64, i32, i32, i32, i32, i32, i16, i8, i8, i8, i8, i8 }
%struct.pingpong = type { i64, i8, ptr, i64, i64, %struct.curltime, i64, %struct.dynbuf, %struct.dynbuf, i64, i64, ptr, ptr }
%struct.Curl_handler = type { ptr, ptr, ptr, ptr, ptr, ptr, ptr, ptr, ptr, ptr, ptr, ptr, ptr, ptr, ptr, ptr, ptr, i32, i32, i32, i32 }
%struct.cf_setup_ctx = type { i32, ptr, i32, i32 }

@Curl_cfree = external global ptr, align 8
@Curl_ccalloc = external global ptr, align 8

; Function Attrs: nounwind uwtable
define internal i32 @cf_setup_create(ptr noundef %0, ptr noundef %1, ptr noundef %2, i32 noundef %3, i32 noundef %4) #0 {
  %6 = alloca ptr, align 8
  %7 = alloca ptr, align 8
  %8 = alloca ptr, align 8
  %9 = alloca i32, align 4
  %10 = alloca i32, align 4
  %11 = alloca ptr, align 8
  %12 = alloca ptr, align 8
  %13 = alloca i32, align 4
  store ptr %0, ptr %6, align 8, !tbaa !186
  store ptr %1, ptr %7, align 8, !tbaa !4
  store ptr %2, ptr %8, align 8, !tbaa !185
  store i32 %3, ptr %9, align 4, !tbaa !86
  store i32 %4, ptr %10, align 4, !tbaa !86
  call void @llvm.lifetime.start.p0(i64 8, ptr %11) #8
  store ptr null, ptr %11, align 8, !tbaa !128
  call void @llvm.lifetime.start.p0(i64 8, ptr %12) #8
  call void @llvm.lifetime.start.p0(i64 4, ptr %13) #8
  store i32 0, ptr %13, align 4, !tbaa !86
  %14 = load ptr, ptr @Curl_ccalloc, align 8, !tbaa !141
  %15 = call ptr %14(i64 noundef 1, i64 noundef 24)
  store ptr %15, ptr %12, align 8, !tbaa !175
  %16 = load ptr, ptr %12, align 8, !tbaa !175
  %17 = icmp ne ptr %16, null
  br i1 %17, label %19, label %18

18:                                               ; preds = %5
  store i32 27, ptr %13, align 4, !tbaa !86
  br label %37

19:                                               ; preds = %5
  %20 = load ptr, ptr %12, align 8, !tbaa !175
  %21 = getelementptr inbounds nuw %struct.cf_setup_ctx, ptr %20, i32 0, i32 0
  store i32 0, ptr %21, align 8, !tbaa !177
  %22 = load ptr, ptr %8, align 8, !tbaa !185
  %23 = load ptr, ptr %12, align 8, !tbaa !175
  %24 = getelementptr inbounds nuw %struct.cf_setup_ctx, ptr %23, i32 0, i32 1
  store ptr %22, ptr %24, align 8, !tbaa !179
  %25 = load i32, ptr %10, align 4, !tbaa !86
  %26 = load ptr, ptr %12, align 8, !tbaa !175
  %27 = getelementptr inbounds nuw %struct.cf_setup_ctx, ptr %26, i32 0, i32 2
  store i32 %25, ptr %27, align 8, !tbaa !183
  %28 = load i32, ptr %9, align 4, !tbaa !86
  %29 = load ptr, ptr %12, align 8, !tbaa !175
  %30 = getelementptr inbounds nuw %struct.cf_setup_ctx, ptr %29, i32 0, i32 3
  store i32 %28, ptr %30, align 4, !tbaa !180
  %31 = load ptr, ptr %12, align 8, !tbaa !175
  %32 = call i32 @Curl_cf_create(ptr noundef %11, ptr noundef @Curl_cft_setup, ptr noundef %31)
  store i32 %32, ptr %13, align 4, !tbaa !86
  %33 = load i32, ptr %13, align 4, !tbaa !86
  %34 = icmp ne i32 %33, 0
  br i1 %34, label %35, label %36

35:                                               ; preds = %19
  br label %37

36:                                               ; preds = %19
  store ptr null, ptr %12, align 8, !tbaa !175
  br label %37

37:                                               ; preds = %36, %35, %18
  %38 = load i32, ptr %13, align 4, !tbaa !86
  %39 = icmp ne i32 %38, 0
  br i1 %39, label %40, label %41

40:                                               ; preds = %37
  br label %43

41:                                               ; preds = %37
  %42 = load ptr, ptr %11, align 8, !tbaa !128
  br label %43

43:                                               ; preds = %41, %40
  %44 = phi ptr [ null, %40 ], [ %42, %41 ]
  %45 = load ptr, ptr %6, align 8, !tbaa !186
  store ptr %44, ptr %45, align 8, !tbaa !128
  %46 = load ptr, ptr @Curl_cfree, align 8, !tbaa !141
  %47 = load ptr, ptr %12, align 8, !tbaa !175
  call void %46(ptr noundef %47)
  %48 = load i32, ptr %13, align 4, !tbaa !86
  call void @llvm.lifetime.end.p0(i64 4, ptr %13) #8
  call void @llvm.lifetime.end.p0(i64 8, ptr %12) #8
  call void @llvm.lifetime.end.p0(i64 8, ptr %11) #8
  ret i32 %48
}

; Function Attrs: nounwind uwtable
define internal i32 @cf_setup_add(ptr noundef %0, ptr noundef %1, i32 noundef %2, ptr noundef %3, i32 noundef %4, i32 noundef %5) #0 {
  %7 = alloca ptr, align 8
  %8 = alloca ptr, align 8
  %9 = alloca i32, align 4
  %10 = alloca ptr, align 8
  %11 = alloca i32, align 4
  %12 = alloca i32, align 4
  %13 = alloca ptr, align 8
  %14 = alloca i32, align 4
  store ptr %0, ptr %7, align 8, !tbaa !4
  store ptr %1, ptr %8, align 8, !tbaa !99
  store i32 %2, ptr %9, align 4, !tbaa !86
  store ptr %3, ptr %10, align 8, !tbaa !185
  store i32 %4, ptr %11, align 4, !tbaa !86
  store i32 %5, ptr %12, align 4, !tbaa !86
  call void @llvm.lifetime.start.p0(i64 8, ptr %13) #8
  call void @llvm.lifetime.start.p0(i64 4, ptr %14) #8
  store i32 0, ptr %14, align 4, !tbaa !86
  br label %15

15:                                               ; preds = %6
  br label %16

16:                                               ; preds = %15
  br label %17

17:                                               ; preds = %16
  %18 = load ptr, ptr %7, align 8, !tbaa !4
  %19 = load ptr, ptr %10, align 8, !tbaa !185
  %20 = load i32, ptr %11, align 4, !tbaa !86
  %21 = load i32, ptr %12, align 4, !tbaa !86
  %22 = call i32 @cf_setup_create(ptr noundef %13, ptr noundef %18, ptr noundef %19, i32 noundef %20, i32 noundef %21)
  store i32 %22, ptr %14, align 4, !tbaa !86
  %23 = load i32, ptr %14, align 4, !tbaa !86
  %24 = icmp ne i32 %23, 0
  br i1 %24, label %25, label %26

25:                                               ; preds = %17
  br label %31

26:                                               ; preds = %17
  %27 = load ptr, ptr %7, align 8, !tbaa !4
  %28 = load ptr, ptr %8, align 8, !tbaa !99
  %29 = load i32, ptr %9, align 4, !tbaa !86
  %30 = load ptr, ptr %13, align 8, !tbaa !128
  call void @Curl_conn_cf_add(ptr noundef %27, ptr noundef %28, i32 noundef %29, ptr noundef %30)
  br label %31

31:                                               ; preds = %26, %25
  %32 = load i32, ptr %14, align 4, !tbaa !86
  call void @llvm.lifetime.end.p0(i64 4, ptr %14) #8
  call void @llvm.lifetime.end.p0(i64 8, ptr %13) #8
  ret i32 %32
}

; Function Attrs: nounwind uwtable
define dso_local i32 @Curl_conn_setup(ptr noundef %0, ptr noundef %1, i32 noundef %2, ptr noundef %3, i32 noundef %4) #0 {
  %6 = alloca ptr, align 8
  %7 = alloca ptr, align 8
  %8 = alloca i32, align 4
  %9 = alloca ptr, align 8
  %10 = alloca i32, align 4
  %11 = alloca i32, align 4
  store ptr %0, ptr %6, align 8, !tbaa !4
  store ptr %1, ptr %7, align 8, !tbaa !99
  store i32 %2, ptr %8, align 4, !tbaa !86
  store ptr %3, ptr %9, align 8, !tbaa !185
  store i32 %4, ptr %10, align 4, !tbaa !86
  call void @llvm.lifetime.start.p0(i64 4, ptr %11) #8
  store i32 0, ptr %11, align 4, !tbaa !86
  br label %12

12:                                               ; preds = %5
  br label %13

13:                                               ; preds = %12
  br label %14

14:                                               ; preds = %13
  br label %15

15:                                               ; preds = %14
  br label %16

16:                                               ; preds = %15
  br label %17

17:                                               ; preds = %16
  %18 = load ptr, ptr %7, align 8, !tbaa !99
  %19 = getelementptr inbounds nuw %struct.connectdata, ptr %18, i32 0, i32 27
  %20 = load i32, ptr %8, align 4, !tbaa !86
  %21 = sext i32 %20 to i64
  %22 = getelementptr inbounds [2 x ptr], ptr %19, i64 0, i64 %21
  %23 = load ptr, ptr %22, align 8, !tbaa !128
  %24 = icmp ne ptr %23, null
  br i1 %24, label %45, label %25

25:                                               ; preds = %17
  %26 = load ptr, ptr %7, align 8, !tbaa !99
  %27 = getelementptr inbounds nuw %struct.connectdata, ptr %26, i32 0, i32 33
  %28 = load ptr, ptr %27, align 8, !tbaa !154
  %29 = getelementptr inbounds nuw %struct.Curl_handler, ptr %28, i32 0, i32 18
  %30 = load i32, ptr %29, align 4, !tbaa !155
  %31 = icmp eq i32 %30, 2
  br i1 %31, label %32, label %45

32:                                               ; preds = %25
  br label %33

33:                                               ; preds = %32
  br label %34

34:                                               ; preds = %33
  br label %35

35:                                               ; preds = %34
  %36 = load ptr, ptr %6, align 8, !tbaa !4
  %37 = load ptr, ptr %7, align 8, !tbaa !99
  %38 = load i32, ptr %8, align 4, !tbaa !86
  %39 = load ptr, ptr %9, align 8, !tbaa !185
  %40 = call i32 @Curl_cf_https_setup(ptr noundef %36, ptr noundef %37, i32 noundef %38, ptr noundef %39)
  store i32 %40, ptr %11, align 4, !tbaa !86
  %41 = load i32, ptr %11, align 4, !tbaa !86
  %42 = icmp ne i32 %41, 0
  br i1 %42, label %43, label %44

43:                                               ; preds = %35
  br label %72

44:                                               ; preds = %35
  br label %45

45:                                               ; preds = %44, %25, %17
  %46 = load ptr, ptr %7, align 8, !tbaa !99
  %47 = getelementptr inbounds nuw %struct.connectdata, ptr %46, i32 0, i32 27
  %48 = load i32, ptr %8, align 4, !tbaa !86
  %49 = sext i32 %48 to i64
  %50 = getelementptr inbounds [2 x ptr], ptr %47, i64 0, i64 %49
  %51 = load ptr, ptr %50, align 8, !tbaa !128
  %52 = icmp ne ptr %51, null
  br i1 %52, label %68, label %53

53:                                               ; preds = %45
  %54 = load ptr, ptr %6, align 8, !tbaa !4
  %55 = load ptr, ptr %7, align 8, !tbaa !99
  %56 = load i32, ptr %8, align 4, !tbaa !86
  %57 = load ptr, ptr %9, align 8, !tbaa !185
  %58 = load ptr, ptr %7, align 8, !tbaa !99
  %59 = getelementptr inbounds nuw %struct.connectdata, ptr %58, i32 0, i32 54
  %60 = load i8, ptr %59, align 2, !tbaa !188
  %61 = zext i8 %60 to i32
  %62 = load i32, ptr %10, align 4, !tbaa !86
  %63 = call i32 @cf_setup_add(ptr noundef %54, ptr noundef %55, i32 noundef %56, ptr noundef %57, i32 noundef %61, i32 noundef %62)
  store i32 %63, ptr %11, align 4, !tbaa !86
  %64 = load i32, ptr %11, align 4, !tbaa !86
  %65 = icmp ne i32 %64, 0
  br i1 %65, label %66, label %67

66:                                               ; preds = %53
  br label %72

67:                                               ; preds = %53
  br label %68

68:                                               ; preds = %67, %45
  br label %69

69:                                               ; preds = %68
  br label %70

70:                                               ; preds = %69
  br label %71

71:                                               ; preds = %70
  br label %72

72:                                               ; preds = %71, %66, %43
  %73 = load i32, ptr %11, align 4, !tbaa !86
  call void @llvm.lifetime.end.p0(i64 4, ptr %11) #8
  ret i32 %73
}